; Function Attrs: mustprogress uwtable
define noundef nonnull align 8 dereferenceable(32) ptr @_ZNK7xgboost11EllpackPage4CutsEv(ptr noundef nonnull readonly align 8 captures(none) dereferenceable(8) %0) local_unnamed_addr #4 align 2 personality ptr @__gxx_personality_v0 {
  %2 = alloca %"class.dmlc::LogMessageFatal", align 1
  call void @llvm.lifetime.start.p0(i64 1, ptr nonnull %2) #12
  %3 = call noundef nonnull align 8 dereferenceable(376) ptr @_ZN4dmlc15LogMessageFatal8GetEntryEv(ptr noundef nonnull align 1 dereferenceable(1) %2)
  call void @_ZN4dmlc15LogMessageFatal5Entry4InitEPKci(ptr noundef nonnull align 8 dereferenceable(376) %3, ptr noundef nonnull @.str, i32 noundef 46)
  %4 = invoke noundef nonnull align 8 dereferenceable(376) ptr @_ZN4dmlc15LogMessageFatal8GetEntryEv(ptr noundef nonnull align 1 dereferenceable(1) %2)
          to label %_ZN4dmlc15LogMessageFatal6streamB5cxx11Ev.exit unwind label %8

_ZN4dmlc15LogMessageFatal6streamB5cxx11Ev.exit:   ; preds = %1
  %5 = invoke noundef nonnull align 8 dereferenceable(8) ptr @_ZSt16__ostream_insertIcSt11char_traitsIcEERSt13basic_ostreamIT_T0_ES6_PKS3_l(ptr noundef nonnull align 8 dereferenceable(8) %4, ptr noundef nonnull @.str.1, i64 noundef 77)
          to label %_ZStlsISt11char_traitsIcEERSt13basic_ostreamIcT_ES5_PKc.exit unwind label %8

_ZStlsISt11char_traitsIcEERSt13basic_ostreamIcT_ES5_PKc.exit: ; preds = %_ZN4dmlc15LogMessageFatal6streamB5cxx11Ev.exit
  call void @_ZN4dmlc15LogMessageFatalD2Ev(ptr noundef nonnull align 1 dereferenceable(1) %2)
  call void @llvm.lifetime.end.p0(i64 1, ptr nonnull %2) #12
  %6 = load ptr, ptr %0, align 8, !tbaa !17
  %7 = load ptr, ptr %6, align 8, !tbaa !29
  ret ptr %7

8:                                                ; preds = %_ZN4dmlc15LogMessageFatal6streamB5cxx11Ev.exit, %1
  %9 = landingpad { ptr, i32 }
          cleanup
  invoke void @_ZN4dmlc15LogMessageFatalD2Ev(ptr noundef nonnull align 1 dereferenceable(1) %2)
          to label %10 unwind label %11

10:                                               ; preds = %8
  call void @llvm.lifetime.end.p0(i64 1, ptr nonnull %2) #12
  resume { ptr, i32 } %9

11:                                               ; preds = %8
  %12 = landingpad { ptr, i32 }
          catch ptr null
  %13 = extractvalue { ptr, i32 } %12, 0
  call void @__clang_call_terminate(ptr %13) #29
  unreachable
}